target datalayout = "e-m:e-p270:32:32-p271:32:32-p272:64:64-i64:64-i128:128-f80:128-n8:16:32:64-S128"
target triple = "x86_64-pc-linux-gnu"

%struct.Fraig_ManStruct_t_ = type { ptr, ptr, ptr, ptr, ptr, ptr, ptr, ptr, ptr, i32, i32, i32, i32, i32, i32, i32, i32, i32, i32, i32, i32, i64, i32, i32, i32, i32, i32, ptr, ptr, ptr, ptr, ptr, i32, ptr, ptr, ptr, ptr, ptr, ptr, i32, ptr, ptr, ptr, ptr, i32, i32, i32, i32, i32, i32, i32, i32, i32, i32, i32, i32, i32, i32, i32, i32, i32, i32, i32, i64, i64, i64, i64, i64, i64, i64, i64, i64, i64, i64, i64 }

; Function Attrs: nounwind uwtable
define void @Fraig_FeedBackInit(ptr noundef %0) #0 {
  %2 = alloca ptr, align 8
  store ptr %0, ptr %2, align 8
  %3 = call ptr @Fraig_NodeVecAlloc(i32 noundef 500)
  %4 = load ptr, ptr %2, align 8
  %5 = getelementptr inbounds %struct.Fraig_ManStruct_t_, ptr %4, i32 0, i32 27
  store ptr %3, ptr %5, align 8
  %6 = call ptr @Msat_IntVecAlloc(i32 noundef 1000)
  %7 = load ptr, ptr %2, align 8
  %8 = getelementptr inbounds %struct.Fraig_ManStruct_t_, ptr %7, i32 0, i32 28
  store ptr %6, ptr %8, align 8
  %9 = load ptr, ptr %2, align 8
  %10 = getelementptr inbounds %struct.Fraig_ManStruct_t_, ptr %9, i32 0, i32 36
  %11 = load ptr, ptr %10, align 8
  %12 = call ptr @Fraig_MemFixedEntryFetch(ptr noundef %11)
  %13 = load ptr, ptr %2, align 8
  %14 = getelementptr inbounds %struct.Fraig_ManStruct_t_, ptr %13, i32 0, i32 29
  store ptr %12, ptr %14, align 8
  %15 = load ptr, ptr %2, align 8
  %16 = getelementptr inbounds %struct.Fraig_ManStruct_t_, ptr %15, i32 0, i32 29
  %17 = load ptr, ptr %16, align 8
  %18 = load ptr, ptr %2, align 8
  %19 = getelementptr inbounds %struct.Fraig_ManStruct_t_, ptr %18, i32 0, i32 10
  %20 = load i32, ptr %19, align 4
  %21 = sext i32 %20 to i64
  %22 = mul i64 4, %21
  call void @llvm.memset.p0.i64(ptr align 4 %17, i8 0, i64 %22, i1 false)
  %23 = load ptr, ptr %2, align 8
  %24 = getelementptr inbounds %struct.Fraig_ManStruct_t_, ptr %23, i32 0, i32 36
  %25 = load ptr, ptr %24, align 8
  %26 = call ptr @Fraig_MemFixedEntryFetch(ptr noundef %25)
  %27 = load ptr, ptr %2, align 8
  %28 = getelementptr inbounds %struct.Fraig_ManStruct_t_, ptr %27, i32 0, i32 31
  store ptr %26, ptr %28, align 8
  %29 = load ptr, ptr %2, align 8
  %30 = getelementptr inbounds %struct.Fraig_ManStruct_t_, ptr %29, i32 0, i32 36
  %31 = load ptr, ptr %30, align 8
  %32 = call ptr @Fraig_MemFixedEntryFetch(ptr noundef %31)
  %33 = load ptr, ptr %2, align 8
  %34 = getelementptr inbounds %struct.Fraig_ManStruct_t_, ptr %33, i32 0, i32 30
  store ptr %32, ptr %34, align 8
  ret void
}