; Function Attrs: nounwind uwtable
define void @Fraig_FeedBackInit(ptr noundef captures(none) initializes((152, 192)) %0) local_unnamed_addr #0 {
  %2 = tail call ptr @Fraig_NodeVecAlloc(i32 noundef 500) #12
  %3 = getelementptr inbounds nuw i8, ptr %0, i64 152
  store ptr %2, ptr %3, align 8
  %4 = tail call ptr @Msat_IntVecAlloc(i32 noundef 1000) #12
  %5 = getelementptr inbounds nuw i8, ptr %0, i64 160
  store ptr %4, ptr %5, align 8
  %6 = getelementptr inbounds nuw i8, ptr %0, i64 224
  %7 = load ptr, ptr %6, align 8
  %8 = tail call ptr @Fraig_MemFixedEntryFetch(ptr noundef %7) #12
  %9 = getelementptr inbounds nuw i8, ptr %0, i64 168
  store ptr %8, ptr %9, align 8
  %10 = getelementptr inbounds nuw i8, ptr %0, i64 76
  %11 = load i32, ptr %10, align 4
  %12 = sext i32 %11 to i64
  %13 = shl nsw i64 %12, 2
  tail call void @llvm.memset.p0.i64(ptr align 4 %8, i8 0, i64 %13, i1 false)
  %14 = load ptr, ptr %6, align 8
  %15 = tail call ptr @Fraig_MemFixedEntryFetch(ptr noundef %14) #12
  %16 = getelementptr inbounds nuw i8, ptr %0, i64 184
  store ptr %15, ptr %16, align 8
  %17 = load ptr, ptr %6, align 8
  %18 = tail call ptr @Fraig_MemFixedEntryFetch(ptr noundef %17) #12
  %19 = getelementptr inbounds nuw i8, ptr %0, i64 176
  store ptr %18, ptr %19, align 8
  ret void
}